target datalayout = "e-m:e-p270:32:32-p271:32:32-p272:64:64-i64:64-i128:128-f80:128-n8:16:32:64-S128"
target triple = "x86_64-pc-linux-gnu"

%class.MemRegion = type { ptr, i64 }
%class.FakeRttiSupport = type <{ i64, i32, [4 x i8] }>
%class.G1BarrierSet = type { %class.CardTableBarrierSet, %"class.BufferNode::Allocator", %"class.BufferNode::Allocator", %class.G1SATBMarkQueueSet, %class.G1DirtyCardQueueSet }
%class.CardTableBarrierSet = type { %class.ModRefBarrierSet, i8, ptr }
%class.ModRefBarrierSet = type { %class.BarrierSet }
%class.BarrierSet = type { ptr, %class.FakeRttiSupport, ptr, ptr, ptr, ptr, ptr }
%"class.BufferNode::Allocator" = type { %"class.BufferNode::AllocatorConfig", %class.FreeListAllocator }
%"class.BufferNode::AllocatorConfig" = type { %class.FreeListConfig, i64 }
%class.FreeListConfig = type { ptr, i64 }
%class.FreeListAllocator = type { ptr, [120 x i8], i64, [120 x i8], %class.LockFreeStack, [120 x i8], i8, [127 x i8], i32, [2 x %"class.FreeListAllocator::PendingList"] }
%class.LockFreeStack = type { ptr }
%"class.FreeListAllocator::PendingList" = type { ptr, ptr, i64 }
%class.G1SATBMarkQueueSet = type { %class.SATBMarkQueueSet.base, [7 x i8] }
%class.SATBMarkQueueSet.base = type <{ %class.PtrQueueSet, [128 x i8], %class.PaddedEnd, i64, i64, i64, i8, [96 x i8] }>
%class.PtrQueueSet = type { ptr, ptr }
%class.PaddedEnd = type { %class.PaddedEndImpl }
%class.PaddedEndImpl = type { %class.LockFreeStack.7, [120 x i8] }
%class.LockFreeStack.7 = type { ptr }
%class.G1DirtyCardQueueSet = type { %class.PtrQueueSet, [128 x i8], i64, [120 x i8], i64, [120 x i8], %class.NonblockingQueue, [120 x i8], %"class.G1DirtyCardQueueSet::PausedBuffers", %class.G1FreeIdSet, %class.G1ConcurrentRefineStats, %class.G1ConcurrentRefineStats }
%class.NonblockingQueue = type { ptr, [120 x i8], ptr }
%"class.G1DirtyCardQueueSet::PausedBuffers" = type { ptr, [120 x i8] }
%class.G1FreeIdSet = type { %class.Semaphore, ptr, i32, i32, i64, i64 }
%class.Semaphore = type { %class.PosixSemaphore }
%class.PosixSemaphore = type { %union.sem_t }
%union.sem_t = type { i64, [24 x i8] }
%class.G1ConcurrentRefineStats = type { %class.TimeInterval, i64, i64, i64 }
%class.TimeInterval = type { %class.CompositeCounterRepresentation }
%class.CompositeCounterRepresentation = type { %class.Representation }
%class.Representation = type { %class.PairRep }
%class.PairRep = type { i64, i64 }
%class.G1ThreadLocalData = type { %class.SATBMarkQueue, %class.G1DirtyCardQueue, %class.G1RegionPinCache }
%class.SATBMarkQueue = type <{ %class.PtrQueue, i8, [7 x i8] }>
%class.PtrQueue = type { i64, ptr }
%class.G1DirtyCardQueue = type { %class.PtrQueue, ptr }
%class.G1RegionPinCache = type { i32, i64 }
%class.CardTable = type { ptr, %class.MemRegion, i64, i64, ptr, ptr, [2 x %class.MemRegion] }
%class.AdaptiveWeightedAverage = type { float, i32, i32, i8, float }
%class.Thread = type { %class.ThreadShadow.base, i64, [43 x i64], ptr, ptr, i32, ptr, i64, i64, %class.ThreadLocalAllocBuffer, i64, %class.ThreadHeapSampler, %class.ThreadStatisticalInfo, %class.JfrThreadLocal, ptr, ptr, ptr, ptr, ptr, ptr, i64, i32, i32, ptr, i32, i32, i32, i32, i8, ptr }
%class.ThreadShadow.base = type <{ ptr, ptr, ptr, i32 }>
%class.ThreadLocalAllocBuffer = type <{ ptr, ptr, ptr, ptr, ptr, i64, i64, i64, i64, i32, i32, i32, i32, i64, %class.AdaptiveWeightedAverage, [4 x i8] }>
%class.ThreadHeapSampler = type { i64 }
%class.ThreadStatisticalInfo = type { i64, i64 }
%class.JfrThreadLocal = type <{ ptr, ptr, ptr, ptr, ptr, ptr, ptr, ptr, ptr, ptr, %class.RefCountHandle, i64, i64, i64, i64, i64, i64, i64, i64, i64, i64, i64, i32, i32, i32, i16, i8, i8, i8, i8, i8, [5 x i8] }>
%class.RefCountHandle = type { ptr }

@_ZN10BarrierSet12_barrier_setE = external global ptr, align 8
@_ZN9CardTable11_card_shiftE = external global i32, align 4

; Function Attrs: mustprogress nounwind uwtable
define linkonce_odr hidden noundef ptr @_ZN6Thread7gc_dataI17G1ThreadLocalDataEEPT_v(ptr noundef nonnull align 8 dereferenceable(888) %0) #1 comdat align 2 {
  %2 = alloca ptr, align 8
  store ptr %0, ptr %2, align 8
  %3 = load ptr, ptr %2, align 8
  %4 = getelementptr inbounds %class.Thread, ptr %3, i32 0, i32 2
  ret ptr %4
}

; Function Attrs: mustprogress nounwind uwtable
define linkonce_odr hidden noundef ptr @_Z16barrier_set_castI12G1BarrierSetEPT_P10BarrierSet(ptr noundef %0) #1 comdat {
  %2 = alloca ptr, align 8
  store ptr %0, ptr %2, align 8
  %3 = load ptr, ptr %2, align 8
  ret ptr %3
}

; Function Attrs: mustprogress nounwind uwtable
define linkonce_odr hidden noundef ptr @_ZN10BarrierSet11barrier_setEv() #1 comdat align 2 {
  %1 = load ptr, ptr @_ZN10BarrierSet12_barrier_setE, align 8
  ret ptr %1
}

; Function Attrs: mustprogress nounwind uwtable
define internal void @_ZL16compiler_barrierv() #1 {
  call void asm sideeffect "", "~{memory},~{dirflag},~{fpsr},~{flags}"() #9, !srcloc !11
  ret void
}

; Function Attrs: mustprogress nounwind uwtable
define linkonce_odr hidden noundef ptr @_ZN17G1ThreadLocalData4dataEP6Thread(ptr noundef %0) #1 comdat align 2 {
  %2 = alloca ptr, align 8
  store ptr %0, ptr %2, align 8
  %3 = load ptr, ptr %2, align 8
  %4 = call noundef ptr @_ZN6Thread7gc_dataI17G1ThreadLocalDataEEPT_v(ptr noundef nonnull align 8 dereferenceable(888) %3)
  ret ptr %4
}

; Function Attrs: mustprogress nounwind uwtable
define linkonce_odr hidden noundef ptr @_ZN12G1BarrierSet14g1_barrier_setEv() #1 comdat align 2 {
  %1 = call noundef ptr @_ZN10BarrierSet11barrier_setEv()
  %2 = call noundef ptr @_Z16barrier_set_castI12G1BarrierSetEPT_P10BarrierSet(ptr noundef %1)
  ret ptr %2
}

; Function Attrs: mustprogress nounwind uwtable
define linkonce_odr hidden void @_ZN11OrderAccess5fenceEv() #1 comdat align 2 {
  call void asm sideeffect "lock; addl $$0,0(%rsp)", "~{cc},~{memory},~{dirflag},~{fpsr},~{flags}"() #9, !srcloc !10
  call void @_ZL16compiler_barrierv()
  ret void
}

; Function Attrs: mustprogress nounwind uwtable
define linkonce_odr hidden noundef i64 @_ZNK9MemRegion9word_sizeEv(ptr noundef nonnull align 8 dereferenceable(16) %0) #1 comdat align 2 {
  %2 = alloca ptr, align 8
  store ptr %0, ptr %2, align 8
  %3 = load ptr, ptr %2, align 8
  %4 = getelementptr inbounds %class.MemRegion, ptr %3, i32 0, i32 1
  %5 = load i64, ptr %4, align 8
  ret i64 %5
}

; Function Attrs: mustprogress nounwind uwtable
define linkonce_odr hidden noundef zeroext i8 @_ZN9CardTable14dirty_card_valEv() #1 comdat align 2 {
  ret i8 0
}

; Function Attrs: mustprogress nounwind uwtable
define linkonce_odr hidden noundef nonnull align 8 dereferenceable(24) ptr @_ZN17G1ThreadLocalData16dirty_card_queueEP6Thread(ptr noundef %0) #1 comdat align 2 {
  %2 = alloca ptr, align 8
  store ptr %0, ptr %2, align 8
  %3 = load ptr, ptr %2, align 8
  %4 = call noundef ptr @_ZN17G1ThreadLocalData4dataEP6Thread(ptr noundef %3)
  %5 = getelementptr inbounds %class.G1ThreadLocalData, ptr %4, i32 0, i32 1
  ret ptr %5
}

; Function Attrs: mustprogress nounwind uwtable
define linkonce_odr hidden noundef nonnull align 8 dereferenceable(928) ptr @_ZN12G1BarrierSet20dirty_card_queue_setEv() #1 comdat align 2 {
  %1 = call noundef ptr @_ZN12G1BarrierSet14g1_barrier_setEv()
  %2 = getelementptr inbounds %class.G1BarrierSet, ptr %1, i32 0, i32 4
  ret ptr %2
}

; Function Attrs: mustprogress nounwind uwtable
define linkonce_odr hidden void @_ZN11OrderAccess9storeloadEv() #1 comdat align 2 {
  call void @_ZN11OrderAccess5fenceEv()
  ret void
}

; Function Attrs: mustprogress nounwind uwtable
define linkonce_odr hidden noundef zeroext i8 @_ZN11G1CardTable17g1_young_card_valEv() #1 comdat align 2 {
  ret i8 2
}

; Function Attrs: mustprogress nounwind uwtable
define linkonce_odr hidden noundef ptr @_ZNK9MemRegion4lastEv(ptr noundef nonnull align 8 dereferenceable(16) %0) #1 comdat align 2 {
  %2 = alloca ptr, align 8
  store ptr %0, ptr %2, align 8
  %3 = load ptr, ptr %2, align 8
  %4 = getelementptr inbounds %class.MemRegion, ptr %3, i32 0, i32 0
  %5 = load ptr, ptr %4, align 8
  %6 = getelementptr inbounds %class.MemRegion, ptr %3, i32 0, i32 1
  %7 = load i64, ptr %6, align 8
  %8 = getelementptr inbounds ptr, ptr %5, i64 %7
  %9 = getelementptr inbounds ptr, ptr %8, i64 -1
  ret ptr %9
}

; Function Attrs: mustprogress nounwind uwtable
define linkonce_odr hidden noundef ptr @_ZNK9CardTable8byte_forEPKv(ptr noundef nonnull align 8 dereferenceable(88) %0, ptr noundef %1) #1 comdat align 2 {
  %3 = alloca ptr, align 8
  %4 = alloca ptr, align 8
  %5 = alloca ptr, align 8
  store ptr %0, ptr %3, align 8
  store ptr %1, ptr %4, align 8
  %6 = load ptr, ptr %3, align 8
  %7 = getelementptr inbounds %class.CardTable, ptr %6, i32 0, i32 5
  %8 = load ptr, ptr %7, align 8
  %9 = load ptr, ptr %4, align 8
  %10 = ptrtoint ptr %9 to i64
  %11 = load i32, ptr @_ZN9CardTable11_card_shiftE, align 4
  %12 = zext i32 %11 to i64
  %13 = lshr i64 %10, %12
  %14 = getelementptr inbounds i8, ptr %8, i64 %13
  store ptr %14, ptr %5, align 8
  %15 = load ptr, ptr %5, align 8
  ret ptr %15
}

; Function Attrs: mustprogress nounwind uwtable
define linkonce_odr hidden noundef ptr @_ZNK9MemRegion5startEv(ptr noundef nonnull align 8 dereferenceable(16) %0) #1 comdat align 2 {
  %2 = alloca ptr, align 8
  store ptr %0, ptr %2, align 8
  %3 = load ptr, ptr %2, align 8
  %4 = getelementptr inbounds %class.MemRegion, ptr %3, i32 0, i32 0
  %5 = load ptr, ptr %4, align 8
  ret ptr %5
}

; Function Attrs: mustprogress nounwind uwtable
define linkonce_odr hidden noundef zeroext i1 @_ZNK9MemRegion8is_emptyEv(ptr noundef nonnull align 8 dereferenceable(16) %0) #1 comdat align 2 {
  %2 = alloca ptr, align 8
  store ptr %0, ptr %2, align 8
  %3 = load ptr, ptr %2, align 8
  %4 = call noundef i64 @_ZNK9MemRegion9word_sizeEv(ptr noundef nonnull align 8 dereferenceable(16) %3)
  %5 = icmp eq i64 %4, 0
  ret i1 %5
}

; Function Attrs: mustprogress nounwind uwtable
define hidden void @_ZN12G1BarrierSet12write_regionEP10JavaThread9MemRegion(ptr noundef nonnull align 8 dereferenceable(2592) %0, ptr noundef %1, ptr %2, i64 %3) unnamed_addr #1 align 2 {
  %5 = alloca %class.MemRegion, align 8
  %6 = alloca ptr, align 8
  %7 = alloca ptr, align 8
  %8 = alloca ptr, align 8
  %9 = alloca ptr, align 8
  %10 = alloca ptr, align 8
  %11 = alloca ptr, align 8
  %12 = alloca i8, align 1
  %13 = getelementptr inbounds { ptr, i64 }, ptr %5, i32 0, i32 0
  store ptr %2, ptr %13, align 8
  %14 = getelementptr inbounds { ptr, i64 }, ptr %5, i32 0, i32 1
  store i64 %3, ptr %14, align 8
  store ptr %0, ptr %6, align 8
  store ptr %1, ptr %7, align 8
  %15 = load ptr, ptr %6, align 8
  %16 = call noundef zeroext i1 @_ZNK9MemRegion8is_emptyEv(ptr noundef nonnull align 8 dereferenceable(16) %5)
  br i1 %16, label %17, label %18

17:                                               ; preds = %4
  br label %60

18:                                               ; preds = %4
  %19 = getelementptr inbounds %class.CardTableBarrierSet, ptr %15, i32 0, i32 2
  %20 = load ptr, ptr %19, align 8
  %21 = call noundef ptr @_ZNK9MemRegion5startEv(ptr noundef nonnull align 8 dereferenceable(16) %5)
  %22 = call noundef ptr @_ZNK9CardTable8byte_forEPKv(ptr noundef nonnull align 8 dereferenceable(88) %20, ptr noundef %21)
  store ptr %22, ptr %8, align 8
  %23 = getelementptr inbounds %class.CardTableBarrierSet, ptr %15, i32 0, i32 2
  %24 = load ptr, ptr %23, align 8
  %25 = call noundef ptr @_ZNK9MemRegion4lastEv(ptr noundef nonnull align 8 dereferenceable(16) %5)
  %26 = call noundef ptr @_ZNK9CardTable8byte_forEPKv(ptr noundef nonnull align 8 dereferenceable(88) %24, ptr noundef %25)
  store ptr %26, ptr %9, align 8
  %27 = load ptr, ptr %8, align 8
  %28 = load volatile i8, ptr %27, align 1
  %29 = zext i8 %28 to i32
  %30 = call noundef zeroext i8 @_ZN11G1CardTable17g1_young_card_valEv()
  %31 = zext i8 %30 to i32
  %32 = icmp eq i32 %29, %31
  br i1 %32, label %33, label %34

33:                                               ; preds = %18
  br label %60

34:                                               ; preds = %18
  call void @_ZN11OrderAccess9storeloadEv()
  %35 = call noundef nonnull align 8 dereferenceable(928) ptr @_ZN12G1BarrierSet20dirty_card_queue_setEv()
  store ptr %35, ptr %10, align 8
  %36 = load ptr, ptr %7, align 8
  %37 = call noundef nonnull align 8 dereferenceable(24) ptr @_ZN17G1ThreadLocalData16dirty_card_queueEP6Thread(ptr noundef %36)
  store ptr %37, ptr %11, align 8
  br label %38

38:                                               ; preds = %57, %34
  %39 = load ptr, ptr %8, align 8
  %40 = load ptr, ptr %9, align 8
  %41 = icmp ule ptr %39, %40
  br i1 %41, label %42, label %60

42:                                               ; preds = %38
  %43 = load ptr, ptr %8, align 8
  %44 = load volatile i8, ptr %43, align 1
  store i8 %44, ptr %12, align 1
  %45 = load i8, ptr %12, align 1
  %46 = zext i8 %45 to i32
  %47 = call noundef zeroext i8 @_ZN9CardTable14dirty_card_valEv()
  %48 = zext i8 %47 to i32
  %49 = icmp ne i32 %46, %48
  br i1 %49, label %50, label %56

50:                                               ; preds = %42
  %51 = call noundef zeroext i8 @_ZN9CardTable14dirty_card_valEv()
  %52 = load ptr, ptr %8, align 8
  store volatile i8 %51, ptr %52, align 1
  %53 = load ptr, ptr %10, align 8
  %54 = load ptr, ptr %11, align 8
  %55 = load ptr, ptr %8, align 8
  call void @_ZN19G1DirtyCardQueueSet7enqueueER16G1DirtyCardQueuePVh(ptr noundef nonnull align 8 dereferenceable(928) %53, ptr noundef nonnull align 8 dereferenceable(24) %54, ptr noundef %55)
  br label %56

56:                                               ; preds = %50, %42
  br label %57

57:                                               ; preds = %56
  %58 = load ptr, ptr %8, align 8
  %59 = getelementptr inbounds i8, ptr %58, i32 1
  store ptr %59, ptr %8, align 8
  br label %38, !llvm.loop !9

60:                                               ; preds = %38, %33, %17
  ret void
}