; Function Attrs: mustprogress nounwind uwtable
define hidden void @_ZN12G1BarrierSet12write_regionEP10JavaThread9MemRegion(ptr nocapture noundef nonnull readonly align 8 dereferenceable(2592) %0, ptr noundef %1, ptr %2, i64 %3) unnamed_addr #0 align 2 {
  %5 = icmp eq i64 %3, 0
  br i1 %5, label %.loopexit, label %6

6:                                                ; preds = %4
  %7 = getelementptr inbounds i8, ptr %0, i64 72
  %8 = load ptr, ptr %7, align 8
  %9 = getelementptr inbounds i8, ptr %8, i64 48
  %10 = load ptr, ptr %9, align 8
  %11 = ptrtoint ptr %2 to i64
  %12 = load i32, ptr @_ZN9CardTable11_card_shiftE, align 4
  %13 = zext nneg i32 %12 to i64
  %14 = lshr i64 %11, %13
  %15 = getelementptr inbounds i8, ptr %10, i64 %14
  %16 = getelementptr inbounds ptr, ptr %2, i64 %3
  %17 = getelementptr inbounds i8, ptr %16, i64 -8
  %18 = ptrtoint ptr %17 to i64
  %19 = lshr i64 %18, %13
  %20 = getelementptr inbounds i8, ptr %10, i64 %19
  %21 = load volatile i8, ptr %15, align 1
  %22 = icmp eq i8 %21, 2
  br i1 %22, label %.loopexit, label %23

23:                                               ; preds = %6
  tail call void asm sideeffect "lock; addl $$0,0(%rsp)", "~{cc},~{memory},~{dirflag},~{fpsr},~{flags}"() #9, !srcloc !9
  tail call void asm sideeffect "", "~{memory},~{dirflag},~{fpsr},~{flags}"() #9, !srcloc !10
  %24 = load ptr, ptr @_ZN10BarrierSet12_barrier_setE, align 8
  %25 = getelementptr inbounds i8, ptr %24, i64 1664
  %26 = getelementptr inbounds i8, ptr %1, i64 64
  %.not14 = icmp sgt i64 %14, %19
  br i1 %.not14, label %.loopexit, label %.lr.ph

.lr.ph:                                           ; preds = %23, %29
  %.015 = phi ptr [ %30, %29 ], [ %15, %23 ]
  %27 = load volatile i8, ptr %.015, align 1
  %.not11 = icmp eq i8 %27, 0
  br i1 %.not11, label %29, label %28

28:                                               ; preds = %.lr.ph
  store volatile i8 0, ptr %.015, align 1
  tail call void @_ZN19G1DirtyCardQueueSet7enqueueER16G1DirtyCardQueuePVh(ptr noundef nonnull align 8 dereferenceable(928) %25, ptr noundef nonnull align 8 dereferenceable(24) %26, ptr noundef nonnull %.015) #9
  br label %29

29:                                               ; preds = %.lr.ph, %28
  %30 = getelementptr inbounds i8, ptr %.015, i64 1
  %.not = icmp ugt ptr %30, %20
  br i1 %.not, label %.loopexit, label %.lr.ph, !llvm.loop !11

.loopexit:                                        ; preds = %29, %23, %6, %4
  ret void
}